target datalayout = "e-m:e-p270:32:32-p271:32:32-p272:64:64-i64:64-i128:128-f80:128-n8:16:32:64-S128"
target triple = "x86_64-pc-linux-gnu"

; Function Attrs: nounwind uwtable
define dso_local double @mcv_combine_selectivities(double noundef %0, double noundef %1, double noundef %2, double noundef %3) #0 {
  %5 = alloca double, align 8
  %6 = alloca double, align 8
  %7 = alloca double, align 8
  %8 = alloca double, align 8
  %9 = alloca double, align 8
  %10 = alloca double, align 8
  store double %0, ptr %5, align 8
  store double %1, ptr %6, align 8
  store double %2, ptr %7, align 8
  store double %3, ptr %8, align 8
  call void @llvm.lifetime.start.p0(i64 8, ptr %9) #9
  call void @llvm.lifetime.start.p0(i64 8, ptr %10) #9
  %11 = load double, ptr %5, align 8
  %12 = load double, ptr %7, align 8
  %13 = fsub double %11, %12
  store double %13, ptr %9, align 8
  br label %14

14:                                               ; preds = %4
  %15 = load double, ptr %9, align 8
  %16 = fcmp olt double %15, 0.000000e+00
  br i1 %16, label %17, label %18

17:                                               ; preds = %14
  store double 0.000000e+00, ptr %9, align 8
  br label %23

18:                                               ; preds = %14
  %19 = load double, ptr %9, align 8
  %20 = fcmp ogt double %19, 1.000000e+00
  br i1 %20, label %21, label %22

21:                                               ; preds = %18
  store double 1.000000e+00, ptr %9, align 8
  br label %22

22:                                               ; preds = %21, %18
  br label %23

23:                                               ; preds = %22, %17
  br label %24

24:                                               ; preds = %23
  br label %25

25:                                               ; preds = %24
  %26 = load double, ptr %9, align 8
  %27 = load double, ptr %8, align 8
  %28 = fsub double 1.000000e+00, %27
  %29 = fcmp ogt double %26, %28
  br i1 %29, label %30, label %33

30:                                               ; preds = %25
  %31 = load double, ptr %8, align 8
  %32 = fsub double 1.000000e+00, %31
  store double %32, ptr %9, align 8
  br label %33

33:                                               ; preds = %30, %25
  %34 = load double, ptr %6, align 8
  %35 = load double, ptr %9, align 8
  %36 = fadd double %34, %35
  store double %36, ptr %10, align 8
  br label %37

37:                                               ; preds = %33
  %38 = load double, ptr %10, align 8
  %39 = fcmp olt double %38, 0.000000e+00
  br i1 %39, label %40, label %41

40:                                               ; preds = %37
  store double 0.000000e+00, ptr %10, align 8
  br label %46

41:                                               ; preds = %37
  %42 = load double, ptr %10, align 8
  %43 = fcmp ogt double %42, 1.000000e+00
  br i1 %43, label %44, label %45

44:                                               ; preds = %41
  store double 1.000000e+00, ptr %10, align 8
  br label %45

45:                                               ; preds = %44, %41
  br label %46

46:                                               ; preds = %45, %40
  br label %47

47:                                               ; preds = %46
  br label %48

48:                                               ; preds = %47
  %49 = load double, ptr %10, align 8
  call void @llvm.lifetime.end.p0(i64 8, ptr %10) #9
  call void @llvm.lifetime.end.p0(i64 8, ptr %9) #9
  ret double %49
}