; Function Attrs: mustprogress nofree norecurse nosync nounwind willreturn memory(none) uwtable
define dso_local double @mcv_combine_selectivities(double noundef %0, double noundef %1, double noundef %2, double noundef %3) local_unnamed_addr #8 {
  %5 = fsub double %0, %2
  %6 = fcmp olt double %5, 0.000000e+00
  br i1 %6, label %10, label %7

7:                                                ; preds = %4
  %8 = fcmp ogt double %5, 1.000000e+00
  br i1 %8, label %9, label %10

9:                                                ; preds = %7
  br label %10

10:                                               ; preds = %4, %7, %9
  %.012 = phi double [ 1.000000e+00, %9 ], [ %5, %7 ], [ 0.000000e+00, %4 ]
  %11 = fsub double 1.000000e+00, %3
  %12 = fcmp ogt double %.012, %11
  %.1 = select i1 %12, double %11, double %.012
  %13 = fadd double %1, %.1
  %14 = fcmp olt double %13, 0.000000e+00
  br i1 %14, label %18, label %15

15:                                               ; preds = %10
  %16 = fcmp ogt double %13, 1.000000e+00
  br i1 %16, label %17, label %18

17:                                               ; preds = %15
  br label %18

18:                                               ; preds = %10, %15, %17
  %.0 = phi double [ 1.000000e+00, %17 ], [ %13, %15 ], [ 0.000000e+00, %10 ]
  ret double %.0
}